(ivck
moonfield
p0
(dp1
S'_moonfield__xmax'
p2
I40
sS'_moonfield__data'
p3
(dp4
(I31
I6
tp5
I499
s(I21
I28
tp6
I400
s(I4
I36
tp7
I33
s(I7
I25
tp8
I489
s(I29
I44
tp9
I495
s(I33
I41
tp10
I329
s(I16
I47
tp11
I486
s(I36
I34
tp12
I187
s(I9
I0
tp13
I168
s(I34
I8
tp14
I214
s(I15
I30
tp15
I362
s(I37
I13
tp16
I157
s(I24
I14
tp17
I331
s(I13
I20
tp18
I154
s(I3
I2
tp19
I316
s(I25
I49
tp20
I70
s(I28
I10
tp21
I169
s(I31
I15
tp22
I404
s(I1
I40
tp23
I267
s(I21
I37
tp24
I326
s(I4
I35
tp25
I312
s(I8
I38
tp26
I234
s(I7
I22
tp27
I237
s(I29
I37
tp28
I387
s(I33
I34
tp29
I11
s(I16
I38
tp30
I83
s(I36
I41
tp31
I441
s(I22
I12
tp32
I298
s(I9
I9
tp33
I79
s(I12
I50
tp34
I240
s(I34
I3
tp35
I358
s(I24
I21
tp36
I431
s(I13
I13
tp37
I442
s(I0
I14
tp38
I60
s(I38
I31
tp39
I460
s(I3
I11
tp40
I337
s(I28
I1
tp41
I131
s(I1
I33
tp42
I412
s(I21
I46
tp43
I161
s(I4
I42
tp44
I269
s(I8
I45
tp45
I415
s(I7
I15
tp46
I422
s(I16
I29
tp47
I270
s(I22
I7
tp48
I78
s(I9
I50
tp49
I148
s(I12
I41
tp50
I154
s(I34
I26
tp51
I438
s(I17
I50
tp52
I63
s(I24
I28
tp53
I412
s(I10
I19
tp54
I45
s(I13
I6
tp55
I443
s(I0
I5
tp56
I22
s(I38
I22
tp57
I263
s(I25
I3
tp58
I192
s(I28
I24
tp59
I377
s(I4
I17
tp60
I73
s(I26
I34
tp61
I206
s(I7
I4
tp62
I116
s(I16
I20
tp63
I256
s(I19
I1
tp64
I370
s(I22
I30
tp65
I450
s(I12
I32
tp66
I161
s(I34
I21
tp67
I318
s(I17
I43
tp68
I57
s(I10
I26
tp69
I242
s(I0
I28
tp70
I277
s(I38
I9
tp71
I78
s(I25
I4
tp72
I232
s(I28
I23
tp73
I310
s(I14
I38
tp74
I57
s(I21
I48
tp75
I250
s(I4
I24
tp76
I3
s(I26
I45
tp77
I345
s(I29
I48
tp78
I429
s(I16
I11
tp79
I492
s(I19
I6
tp80
I292
s(I22
I17
tp81
I485
s(I5
I39
tp82
I154
s(I30
I49
tp83
I90
s(I34
I44
tp84
I408
s(I17
I44
tp85
I407
s(I37
I33
tp86
I5
s(I10
I5
tp87
I321
s(I35
I23
tp88
I336
s(I0
I19
tp89
I278
s(I38
I0
tp90
I133
s(I25
I13
tp91
I98
s(I14
I41
tp92
I225
s(I4
I7
tp93
I249
s(I29
I9
tp94
I220
s(I16
I2
tp95
I121
s(I19
I15
tp96
I463
s(I2
I45
tp97
I72
s(I22
I40
tp98
I44
s(I5
I32
tp99
I404
s(I9
I37
tp100
I473
s(I34
I39
tp101
I380
s(I17
I37
tp102
I7
s(I37
I42
tp103
I505
s(I23
I11
tp104
I436
s(I10
I12
tp105
I504
s(I13
I49
tp106
I407
s(I35
I28
tp107
I295
s(I25
I22
tp108
I424
s(I14
I48
tp109
I236
s(I1
I13
tp110
I88
s(I39
I24
tp111
I142
s(I4
I14
tp112
I284
s(I29
I2
tp113
I316
s(I19
I20
tp114
I240
s(I2
I36
tp115
I215
s(I22
I35
tp116
I307
s(I5
I41
tp117
I402
s(I9
I46
tp118
I133
s(I30
I35
tp119
I176
s(I17
I30
tp120
I205
s(I23
I0
tp121
I494
s(I32
I8
tp122
I286
s(I13
I42
tp123
I368
s(I35
I5
tp124
I399
s(I38
I50
tp125
I45
s(I25
I31
tp126
I137
s(I11
I28
tp127
I62
s(I1
I6
tp128
I19
s(I39
I17
tp129
I57
s(I26
I6
tp130
I123
s(I29
I27
tp131
I422
s(I19
I29
tp132
I281
s(I5
I18
tp133
I274
s(I27
I45
tp134
I296
s(I30
I42
tp135
I383
s(I17
I23
tp136
I114
s(I20
I4
tp137
I471
s(I23
I25
tp138
I312
s(I32
I15
tp139
I289
s(I13
I35
tp140
I396
s(I35
I10
tp141
I232
s(I18
I46
tp142
I476
s(I11
I21
tp143
I497
s(I14
I2
tp144
I322
s(I1
I31
tp145
I310
s(I39
I14
tp146
I38
s(I26
I1
tp147
I229
s(I29
I20
tp148
I192
s(I15
I33
tp149
I289
s(I19
I34
tp150
I419
s(I5
I27
tp151
I144
s(I27
I34
tp152
I168
s(I30
I45
tp153
I108
s(I34
I48
tp154
I112
s(I17
I8
tp155
I349
s(I20
I3
tp156
I55
s(I23
I22
tp157
I484
s(I6
I42
tp158
I303
s(I32
I6
tp159
I470
s(I18
I41
tp160
I104
s(I38
I44
tp161
I32
s(I11
I10
tp162
I392
s(I14
I5
tp163
I76
s(I36
I18
tp164
I371
s(I1
I16
tp165
I494
s(I39
I7
tp166
I477
s(I26
I8
tp167
I293
s(I15
I46
tp168
I17
s(I19
I43
tp169
I407
s(I2
I49
tp170
I344
s(I5
I4
tp171
I277
s(I30
I20
tp172
I439
s(I17
I1
tp173
I346
s(I20
I10
tp174
I425
s(I3
I50
tp175
I180
s(I23
I47
tp176
I106
s(I6
I45
tp177
I37
s(I10
I32
tp178
I135
s(I32
I29
tp179
I219
s(I18
I32
tp180
I216
s(I38
I39
tp181
I182
s(I8
I22
tp182
I244
s(I11
I3
tp183
I9
s(I14
I12
tp184
I489
s(I36
I25
tp185
I388
s(I26
I19
tp186
I460
s(I19
I48
tp187
I442
s(I2
I8
tp188
I18
s(I24
I37
tp189
I443
s(I5
I13
tp190
I128
s(I27
I48
tp191
I81
s(I30
I31
tp192
I3
s(I20
I17
tp193
I39
s(I23
I36
tp194
I176
s(I6
I36
tp195
I109
s(I10
I43
tp196
I490
s(I32
I20
tp197
I470
s(I31
I36
tp198
I299
s(I35
I33
tp199
I269
s(I18
I27
tp200
I391
s(I8
I29
tp201
I174
s(I33
I11
tp202
I335
s(I14
I23
tp203
I370
s(I36
I0
tp204
I68
s(I26
I26
tp205
I156
s(I12
I25
tp206
I252
s(I2
I3
tp207
I341
s(I24
I44
tp208
I170
s(I27
I9
tp209
I353
s(I30
I6
tp210
I357
s(I20
I24
tp211
I55
s(I3
I32
tp212
I270
s(I6
I31
tp213
I139
s(I28
I40
tp214
I55
s(I32
I43
tp215
I153
s(I31
I45
tp216
I390
s(I35
I38
tp217
I379
s(I18
I18
tp218
I224
s(I21
I7
tp219
I257
s(I8
I4
tp220
I443
s(I11
I49
tp221
I387
s(I33
I12
tp222
I44
s(I14
I30
tp223
I263
s(I36
I15
tp224
I397
s(I39
I50
tp225
I140
s(I12
I16
tp226
I95
s(I15
I5
tp227
I158
s(I2
I26
tp228
I367
s(I27
I14
tp229
I101
s(I30
I9
tp230
I479
s(I0
I44
tp231
I318
s(I20
I39
tp232
I461
s(I3
I41
tp233
I237
s(I6
I22
tp234
I55
s(I28
I39
tp235
I439
s(I32
I34
tp236
I489
s(I31
I42
tp237
I276
s(I35
I47
tp238
I136
s(I18
I13
tp239
I92
s(I21
I0
tp240
I86
s(I8
I11
tp241
I284
s(I7
I45
tp242
I244
s(I33
I5
tp243
I169
s(I39
I43
tp244
I246
s(I12
I15
tp245
I217
s(I15
I2
tp246
I325
s(I37
I17
tp247
I192
s(I2
I21
tp248
I74
s(I27
I7
tp249
I59
s(I0
I35
tp250
I287
s(I20
I46
tp251
I167
s(I3
I46
tp252
I432
s(I6
I9
tp253
I115
s(I31
I19
tp254
I59
s(I18
I4
tp255
I466
s(I21
I9
tp256
I61
s(I8
I50
tp257
I454
s(I7
I42
tp258
I20
s(I11
I47
tp259
I481
s(I33
I30
tp260
I206
s(I16
I50
tp261
I429
s(I39
I32
tp262
I16
s(I9
I21
tp263
I140
s(I12
I6
tp264
I411
s(I15
I11
tp265
I387
s(I37
I26
tp266
I368
s(I24
I1
tp267
I43
s(I27
I28
tp268
I39
s(I3
I23
tp269
I272
s(I25
I38
tp270
I50
s(I6
I0
tp271
I173
s(I32
I48
tp272
I158
s(I31
I24
tp273
I484
s(I21
I18
tp274
I492
s(I7
I35
tp275
I312
s(I11
I36
tp276
I201
s(I33
I23
tp277
I231
s(I16
I41
tp278
I12
s(I36
I36
tp279
I459
s(I9
I30
tp280
I303
s(I34
I14
tp281
I227
s(I15
I16
tp282
I296
s(I37
I3
tp283
I209
s(I24
I8
tp284
I235
s(I27
I21
tp285
I495
s(I13
I26
tp286
I312
s(I0
I49
tp287
I2
s(I3
I28
tp288
I494
s(I25
I47
tp289
I58
s(I28
I12
tp290
I283
s(I31
I1
tp291
I160
s(I21
I27
tp292
I384
s(I4
I37
tp293
I36
s(I8
I32
tp294
I428
s(I7
I24
tp295
I173
s(I29
I43
tp296
I301
s(I33
I40
tp297
I158
s(I16
I32
tp298
I364
s(I36
I35
tp299
I277
s(I22
I10
tp300
I18
s(I9
I7
tp301
I11
s(I34
I9
tp302
I266
s(I15
I25
tp303
I184
s(I37
I12
tp304
I262
s(I24
I15
tp305
I414
s(I13
I19
tp306
I192
s(I0
I8
tp307
I494
s(I3
I5
tp308
I49
s(I25
I48
tp309
I198
s(I28
I11
tp310
I360
s(I31
I14
tp311
I472
s(I1
I47
tp312
I170
s(I21
I36
tp313
I140
s(I4
I44
tp314
I128
s(I8
I39
tp315
I179
s(I7
I17
tp316
I439
s(I29
I36
tp317
I306
s(I33
I33
tp318
I275
s(I16
I39
tp319
I252
s(I36
I42
tp320
I332
s(I22
I13
tp321
I421
s(I9
I8
tp322
I494
s(I34
I0
tp323
I303
s(I24
I22
tp324
I186
s(I13
I12
tp325
I424
s(I0
I15
tp326
I257
s(I38
I28
tp327
I442
s(I3
I10
tp328
I277
s(I28
I2
tp329
I425
s(I1
I32
tp330
I59
s(I21
I45
tp331
I319
s(I4
I43
tp332
I239
s(I8
I46
tp333
I352
s(I7
I14
tp334
I421
s(I16
I30
tp335
I125
s(I22
I4
tp336
I477
s(I9
I49
tp337
I378
s(I12
I42
tp338
I403
s(I34
I27
tp339
I0
s(I17
I49
tp340
I261
s(I24
I29
tp341
I217
s(I10
I16
tp342
I495
s(I13
I5
tp343
I16
s(I0
I6
tp344
I340
s(I38
I23
tp345
I305
s(I25
I2
tp346
I166
s(I28
I25
tp347
I309
s(I4
I18
tp348
I490
s(I26
I35
tp349
I231
s(I7
I7
tp350
I46
s(I16
I21
tp351
I100
s(I19
I0
tp352
I446
s(I22
I31
tp353
I448
s(I12
I33
tp354
I124
s(I34
I18
tp355
I62
s(I17
I42
tp356
I381
s(I37
I39
tp357
I508
s(I10
I27
tp358
I11
s(I35
I17
tp359
I439
s(I0
I29
tp360
I436
s(I38
I14
tp361
I463
s(I25
I11
tp362
I38
s(I28
I16
tp363
I142
s(I14
I39
tp364
I92
s(I1
I50
tp365
I492
s(I4
I25
tp366
I312
s(I26
I42
tp367
I368
s(I29
I15
tp368
I86
s(I16
I12
tp369
I161
s(I19
I9
tp370
I89
s(I22
I22
tp371
I13
s(I5
I38
tp372
I128
s(I9
I35
tp373
I81
s(I34
I45
tp374
I281
s(I17
I35
tp375
I92
s(I37
I32
tp376
I436
s(I23
I13
tp377
I191
s(I10
I2
tp378
I382
s(I35
I22
tp379
I471
s(I0
I20
tp380
I303
s(I38
I1
tp381
I12
s(I25
I12
tp382
I56
s(I14
I46
tp383
I163
s(I1
I11
tp384
I338
s(I4
I0
tp385
I436
s(I29
I8
tp386
I223
s(I16
I3
tp387
I171
s(I19
I14
tp388
I456
s(I2
I42
tp389
I221
s(I22
I41
tp390
I286
s(I5
I47
tp391
I131
s(I9
I36
tp392
I407
s(I34
I36
tp393
I271
s(I17
I36
tp394
I412
s(I37
I41
tp395
I228
s(I23
I10
tp396
I206
s(I10
I13
tp397
I151
s(I13
I48
tp398
I453
s(I35
I31
tp399
I206
s(I25
I21
tp400
I44
s(I14
I49
tp401
I23
s(I1
I12
tp402
I92
s(I39
I27
tp403
I99
s(I4
I15
tp404
I469
s(I29
I1
tp405
I312
s(I19
I23
tp406
I437
s(I2
I37
tp407
I83
s(I22
I32
tp408
I125
s(I5
I40
tp409
I42
s(I9
I45
tp410
I486
s(I30
I32
tp411
I184
s(I17
I29
tp412
I379
s(I23
I3
tp413
I163
s(I32
I9
tp414
I489
s(I13
I41
tp415
I444
s(I35
I4
tp416
I429
s(I25
I30
tp417
I381
s(I11
I31
tp418
I474
s(I1
I5
tp419
I95
s(I39
I16
tp420
I94
s(I26
I7
tp421
I157
s(I29
I26
tp422
I119
s(I19
I28
tp423
I290
s(I5
I17
tp424
I145
s(I27
I44
tp425
I408
s(I30
I43
tp426
I90
s(I17
I22
tp427
I468
s(I20
I5
tp428
I335
s(I23
I24
tp429
I143
s(I6
I48
tp430
I90
s(I32
I0
tp431
I393
s(I13
I34
tp432
I382
s(I35
I13
tp433
I259
s(I18
I47
tp434
I432
s(I38
I42
tp435
I382
s(I11
I20
tp436
I104
s(I14
I3
tp437
I312
s(I36
I20
tp438
I185
s(I1
I30
tp439
I353
s(I39
I9
tp440
I1
s(I26
I14
tp441
I467
s(I29
I19
tp442
I433
s(I15
I32
tp443
I455
s(I19
I37
tp444
I124
s(I22
I50
tp445
I48
s(I5
I26
tp446
I435
s(I27
I37
tp447
I78
s(I30
I18
tp448
I370
s(I34
I49
tp449
I144
s(I17
I15
tp450
I75
s(I20
I12
tp451
I24
s(I23
I17
tp452
I119
s(I6
I43
tp453
I454
s(I10
I38
tp454
I330
s(I32
I7
tp455
I169
s(I31
I49
tp456
I243
s(I35
I50
tp457
I220
s(I18
I38
tp458
I132
s(I38
I45
tp459
I365
s(I8
I16
tp460
I187
s(I11
I13
tp461
I150
s(I14
I10
tp462
I439
s(I36
I19
tp463
I123
s(I1
I23
tp464
I343
s(I39
I6
tp465
I125
s(I26
I9
tp466
I104
s(I15
I41
tp467
I95
s(I19
I42
tp468
I372
s(I2
I14
tp469
I241
s(I5
I3
tp470
I209
s(I30
I21
tp471
I503
s(I17
I0
tp472
I193
s(I20
I11
tp473
I361
s(I23
I46
tp474
I298
s(I6
I34
tp475
I283
s(I10
I33
tp476
I244
s(I32
I30
tp477
I53
s(I18
I33
tp478
I370
s(I38
I36
tp479
I496
s(I8
I23
tp480
I417
s(I11
I2
tp481
I434
s(I14
I13
tp482
I130
s(I36
I26
tp483
I148
s(I26
I16
tp484
I139
s(I2
I9
tp485
I261
s(I24
I38
tp486
I397
s(I5
I12
tp487
I34
s(I30
I28
tp488
I190
s(I20
I18
tp489
I397
s(I23
I39
tp490
I244
s(I6
I37
tp491
I402
s(I10
I40
tp492
I241
s(I32
I21
tp493
I133
s(I31
I39
tp494
I362
s(I35
I32
tp495
I279
s(I18
I24
tp496
I131
s(I8
I30
tp497
I170
s(I33
I10
tp498
I72
s(I14
I20
tp499
I327
s(I36
I1
tp500
I352
s(I26
I27
tp501
I387
s(I12
I26
tp502
I175
s(I2
I0
tp503
I337
s(I24
I45
tp504
I469
s(I27
I8
tp505
I321
s(I30
I7
tp506
I252
s(I20
I25
tp507
I433
s(I3
I35
tp508
I263
s(I6
I28
tp509
I356
s(I28
I41
tp510
I37
s(I32
I44
tp511
I490
s(I31
I44
tp512
I30
s(I35
I41
tp513
I458
s(I18
I19
tp514
I54
s(I21
I6
tp515
I243
s(I8
I5
tp516
I24
s(I11
I48
tp517
I152
s(I33
I3
tp518
I110
s(I14
I31
tp519
I300
s(I36
I8
tp520
I142
s(I39
I45
tp521
I403
s(I12
I17
tp522
I191
s(I15
I4
tp523
I365
s(I37
I23
tp524
I451
s(I2
I27
tp525
I332
s(I27
I1
tp526
I311
s(I30
I14
tp527
I277
s(I0
I45
tp528
I485
s(I20
I32
tp529
I1
s(I3
I40
tp530
I497
s(I6
I23
tp531
I135
s(I28
I32
tp532
I268
s(I32
I35
tp533
I332
s(I31
I21
tp534
I356
s(I35
I46
tp535
I44
s(I18
I10
tp536
I382
s(I21
I15
tp537
I241
s(I8
I12
tp538
I190
s(I7
I44
tp539
I377
s(I11
I41
tp540
I83
s(I33
I4
tp541
I38
s(I39
I42
tp542
I240
s(I9
I19
tp543
I343
s(I12
I8
tp544
I276
s(I15
I13
tp545
I355
s(I37
I16
tp546
I346
s(I2
I18
tp547
I475
s(I27
I6
tp548
I32
s(I0
I36
tp549
I304
s(I20
I47
tp550
I451
s(I3
I17
tp551
I141
s(I23
I50
tp552
I238
s(I6
I14
tp553
I435
s(I31
I18
tp554
I45
s(I18
I5
tp555
I442
s(I21
I8
tp556
I472
s(I4
I48
tp557
I82
s(I7
I37
tp558
I69
s(I11
I46
tp559
I206
s(I33
I29
tp560
I211
s(I39
I35
tp561
I490
s(I9
I20
tp562
I15
s(I12
I7
tp563
I395
s(I15
I10
tp564
I150
s(I37
I25
tp565
I22
s(I24
I2
tp566
I19
s(I27
I31
tp567
I256
s(I3
I22
tp568
I7
s(I25
I37
tp569
I504
s(I6
I1
tp570
I459
s(I32
I49
tp571
I496
s(I31
I27
tp572
I48
s(I21
I17
tp573
I330
s(I7
I34
tp574
I135
s(I11
I39
tp575
I66
s(I33
I22
tp576
I416
s(I16
I42
tp577
I133
s(I36
I37
tp578
I464
s(I9
I29
tp579
I472
s(I34
I15
tp580
I155
s(I15
I19
tp581
I26
s(I37
I2
tp582
I76
s(I24
I9
tp583
I280
s(I27
I20
tp584
I242
s(I13
I25
tp585
I497
s(I0
I50
tp586
I479
s(I3
I31
tp587
I49
s(I25
I46
tp588
I132
s(I28
I13
tp589
I468
s(I31
I0
tp590
I203
s(I21
I26
tp591
I73
s(I4
I38
tp592
I455
s(I8
I33
tp593
I413
s(I7
I27
tp594
I506
s(I29
I42
tp595
I220
s(I33
I47
tp596
I68
s(I16
I33
tp597
I358
s(I36
I44
tp598
I241
s(I22
I11
tp599
I145
s(I9
I6
tp600
I88
s(I34
I6
tp601
I158
s(I15
I24
tp602
I148
s(I37
I11
tp603
I123
s(I24
I16
tp604
I44
s(I13
I18
tp605
I195
s(I0
I9
tp606
I464
s(I38
I26
tp607
I193
s(I3
I4
tp608
I424
s(I28
I4
tp609
I182
s(I31
I9
tp610
I352
s(I1
I46
tp611
I1
s(I21
I35
tp612
I233
s(I4
I45
tp613
I231
s(I8
I40
tp614
I72
s(I7
I16
tp615
I411
s(I29
I35
tp616
I376
s(I33
I32
tp617
I290
s(I16
I24
tp618
I179
s(I36
I43
tp619
I312
s(I22
I2
tp620
I251
s(I9
I15
tp621
I479
s(I12
I44
tp622
I477
s(I34
I1
tp623
I186
s(I24
I23
tp624
I139
s(I10
I22
tp625
I301
s(I13
I11
tp626
I19
s(I0
I0
tp627
I167
s(I38
I29
tp628
I307
s(I3
I13
tp629
I19
s(I28
I3
tp630
I484
s(I1
I39
tp631
I202
s(I21
I44
tp632
I485
s(I4
I20
tp633
I416
s(I8
I47
tp634
I500
s(I7
I9
tp635
I137
s(I16
I31
tp636
I417
s(I22
I5
tp637
I217
s(I9
I48
tp638
I482
s(I12
I43
tp639
I58
s(I34
I24
tp640
I443
s(I17
I48
tp641
I40
s(I24
I30
tp642
I104
s(I10
I17
tp643
I374
s(I13
I4
tp644
I24
s(I0
I7
tp645
I416
s(I38
I20
tp646
I22
s(I25
I1
tp647
I262
s(I28
I26
tp648
I65
s(I4
I19
tp649
I218
s(I26
I32
tp650
I470
s(I7
I6
tp651
I213
s(I33
I50
tp652
I324
s(I16
I22
tp653
I51
s(I19
I3
tp654
I347
s(I22
I28
tp655
I461
s(I12
I34
tp656
I475
s(I34
I19
tp657
I421
s(I17
I41
tp658
I304
s(I37
I38
tp659
I425
s(I10
I24
tp660
I408
s(I35
I16
tp661
I226
s(I0
I30
tp662
I247
s(I38
I15
tp663
I411
s(I25
I10
tp664
I357
s(I28
I17
tp665
I224
s(I14
I36
tp666
I51
s(I1
I49
tp667
I351
s(I4
I26
tp668
I472
s(I26
I43
tp669
I70
s(I29
I14
tp670
I35
s(I16
I13
tp671
I286
s(I19
I8
tp672
I92
s(I22
I23
tp673
I17
s(I5
I37
tp674
I241
s(I9
I34
tp675
I29
s(I34
I42
tp676
I129
s(I17
I34
tp677
I492
s(I37
I47
tp678
I435
s(I23
I12
tp679
I305
s(I10
I3
tp680
I264
s(I35
I25
tp681
I90
s(I0
I21
tp682
I264
s(I38
I6
tp683
I48
s(I25
I19
tp684
I104
s(I14
I47
tp685
I443
s(I1
I10
tp686
I203
s(I39
I29
tp687
I413
s(I4
I1
tp688
I189
s(I26
I50
tp689
I371
s(I29
I7
tp690
I418
s(I16
I4
tp691
I8
s(I19
I17
tp692
I196
s(I2
I43
tp693
I108
s(I22
I46
tp694
I379
s(I5
I46
tp695
I287
s(I9
I43
tp696
I469
s(I34
I37
tp697
I328
s(I17
I27
tp698
I45
s(I37
I40
tp699
I192
s(I23
I5
tp700
I39
s(I10
I10
tp701
I42
s(I13
I47
tp702
I132
s(I35
I30
tp703
I273
s(I25
I20
tp704
I452
s(I11
I25
tp705
I118
s(I1
I3
tp706
I235
s(I39
I26
tp707
I236
s(I4
I8
tp708
I214
s(I29
I0
tp709
I481
s(I19
I22
tp710
I75
s(I2
I34
tp711
I438
s(I22
I33
tp712
I350
s(I5
I23
tp713
I461
s(I9
I44
tp714
I402
s(I30
I33
tp715
I218
s(I17
I28
tp716
I120
s(I23
I2
tp717
I49
s(I32
I10
tp718
I466
s(I13
I40
tp719
I466
s(I35
I7
tp720
I282
s(I38
I48
tp721
I193
s(I25
I29
tp722
I330
s(I11
I30
tp723
I505
s(I1
I4
tp724
I466
s(I39
I19
tp725
I60
s(I26
I4
tp726
I127
s(I29
I25
tp727
I411
s(I19
I31
tp728
I250
s(I5
I16
tp729
I388
s(I27
I47
tp730
I78
s(I30
I40
tp731
I409
s(I17
I21
tp732
I124
s(I20
I6
tp733
I196
s(I23
I27
tp734
I486
s(I6
I49
tp735
I346
s(I32
I1
tp736
I439
s(I13
I33
tp737
I368
s(I35
I12
tp738
I40
s(I18
I44
tp739
I443
s(I38
I43
tp740
I112
s(I11
I23
tp741
I473
s(I14
I0
tp742
I444
s(I36
I21
tp743
I431
s(I1
I29
tp744
I157
s(I39
I8
tp745
I375
s(I26
I15
tp746
I501
s(I29
I18
tp747
I245
s(I15
I35
tp748
I28
s(I19
I36
tp749
I245
s(I5
I25
tp750
I507
s(I27
I36
tp751
I426
s(I30
I19
tp752
I36
s(I17
I14
tp753
I504
s(I20
I13
tp754
I167
s(I23
I16
tp755
I127
s(I6
I40
tp756
I415
s(I10
I39
tp757
I317
s(I32
I24
tp758
I128
s(I31
I48
tp759
I46
s(I18
I39
tp760
I373
s(I38
I34
tp761
I377
s(I8
I17
tp762
I505
s(I11
I12
tp763
I489
s(I14
I11
tp764
I162
s(I36
I28
tp765
I106
s(I1
I22
tp766
I386
s(I39
I1
tp767
I142
s(I26
I22
tp768
I255
s(I15
I40
tp769
I335
s(I19
I45
tp770
I334
s(I2
I15
tp771
I67
s(I24
I32
tp772
I331
s(I5
I2
tp773
I54
s(I30
I26
tp774
I185
s(I17
I7
tp775
I254
s(I20
I20
tp776
I229
s(I23
I41
tp777
I453
s(I6
I35
tp778
I228
s(I10
I46
tp779
I181
s(I32
I31
tp780
I317
s(I18
I30
tp781
I314
s(I38
I37
tp782
I118
s(I8
I24
tp783
I382
s(I11
I5
tp784
I407
s(I14
I18
tp785
I289
s(I36
I27
tp786
I1
s(I26
I17
tp787
I330
s(I12
I28
tp788
I224
s(I15
I49
tp789
I263
s(I19
I50
tp790
I488
s(I2
I6
tp791
I487
s(I24
I39
tp792
I40
s(I5
I11
tp793
I39
s(I27
I50
tp794
I97
s(I30
I29
tp795
I287
s(I20
I19
tp796
I487
s(I23
I38
tp797
I271
s(I6
I26
tp798
I55
s(I10
I41
tp799
I102
s(I32
I22
tp800
I388
s(I31
I38
tp801
I488
s(I35
I35
tp802
I197
s(I18
I25
tp803
I161
s(I8
I31
tp804
I70
s(I33
I9
tp805
I379
s(I14
I21
tp806
I115
s(I36
I2
tp807
I64
s(I26
I24
tp808
I367
s(I12
I27
tp809
I368
s(I2
I1
tp810
I383
s(I24
I46
tp811
I301
s(I27
I11
tp812
I301
s(I30
I4
tp813
I236
s(I20
I26
tp814
I231
s(I3
I34
tp815
I254
s(I6
I29
tp816
I98
s(I28
I42
tp817
I378
s(I32
I45
tp818
I117
s(I31
I47
tp819
I328
s(I35
I40
tp820
I293
s(I18
I16
tp821
I284
s(I21
I5
tp822
I399
s(I8
I6
tp823
I479
s(I33
I2
tp824
I384
s(I14
I28
tp825
I463
s(I36
I9
tp826
I49
s(I39
I44
tp827
I249
s(I12
I18
tp828
I182
s(I15
I7
tp829
I116
s(I37
I22
tp830
I93
s(I2
I24
tp831
I173
s(I27
I0
tp832
I99
s(I30
I15
tp833
I157
s(I0
I46
tp834
I70
s(I20
I33
tp835
I502
s(I3
I43
tp836
I87
s(I6
I20
tp837
I331
s(I28
I33
tp838
I41
s(I32
I36
tp839
I161
s(I31
I20
tp840
I467
s(I18
I11
tp841
I329
s(I21
I14
tp842
I440
s(I8
I13
tp843
I425
s(I7
I47
tp844
I103
s(I11
I40
tp845
I342
s(I33
I27
tp846
I158
s(I36
I48
tp847
I380
s(I39
I37
tp848
I376
s(I9
I18
tp849
I247
s(I12
I9
tp850
I68
s(I15
I12
tp851
I148
s(I37
I31
tp852
I405
s(I2
I19
tp853
I95
s(I27
I25
tp854
I62
s(I0
I37
tp855
I486
s(I20
I40
tp856
I169
s(I3
I16
tp857
I356
s(I25
I35
tp858
I274
s(I6
I15
tp859
I339
s(I31
I29
tp860
I169
s(I18
I2
tp861
I434
s(I21
I23
tp862
I356
s(I4
I49
tp863
I360
s(I7
I36
tp864
I457
s(I11
I33
tp865
I376
s(I33
I28
tp866
I139
s(I39
I34
tp867
I383
s(I9
I27
tp868
I394
s(I12
I0
tp869
I340
s(I15
I21
tp870
I181
s(I37
I24
tp871
I434
s(I24
I3
tp872
I315
s(I27
I30
tp873
I52
s(I13
I31
tp874
I254
s(I3
I25
tp875
I460
s(I25
I36
tp876
I372
s(I6
I6
tp877
I39
s(I32
I50
tp878
I440
s(I31
I26
tp879
I439
s(I21
I16
tp880
I436
s(I7
I29
tp881
I278
s(I11
I38
tp882
I90
s(I33
I21
tp883
I451
s(I16
I43
tp884
I389
s(I36
I38
tp885
I383
s(I9
I28
tp886
I372
s(I34
I12
tp887
I175
s(I15
I18
tp888
I485
s(I37
I1
tp889
I450
s(I24
I10
tp890
I507
s(I27
I23
tp891
I196
s(I13
I24
tp892
I344
s(I3
I30
tp893
I228
s(I25
I45
tp894
I488
s(I28
I14
tp895
I161
s(I31
I3
tp896
I240
s(I21
I25
tp897
I79
s(I4
I39
tp898
I219
s(I8
I34
tp899
I244
s(I7
I26
tp900
I9
s(I29
I41
tp901
I99
s(I33
I46
tp902
I65
s(I16
I34
tp903
I141
s(I36
I45
tp904
I78
s(I22
I8
tp905
I232
s(I9
I5
tp906
I52
s(I34
I7
tp907
I308
s(I15
I27
tp908
I5
s(I37
I10
tp909
I120
s(I24
I17
tp910
I499
s(I13
I17
tp911
I47
s(I0
I10
tp912
I48
s(I38
I27
tp913
I332
s(I3
I7
tp914
I347
s(I28
I5
tp915
I303
s(I31
I8
tp916
I429
s(I1
I45
tp917
I507
s(I21
I34
tp918
I264
s(I4
I46
tp919
I194
s(I8
I41
tp920
I49
s(I7
I19
tp921
I168
s(I29
I34
tp922
I252
s(I33
I39
tp923
I26
s(I16
I25
tp924
I109
s(I22
I3
tp925
I131
s(I9
I14
tp926
I39
s(I12
I45
tp927
I141
s(I34
I30
tp928
I313
s(I24
I24
tp929
I57
s(I10
I23
tp930
I77
s(I13
I10
tp931
I234
s(I0
I1
tp932
I63
s(I38
I18
tp933
I442
s(I3
I12
tp934
I396
s(I28
I28
tp935
I300
s(I1
I38
tp936
I352
s(I21
I43
tp937
I70
s(I4
I21
tp938
I432
s(I26
I38
tp939
I16
s(I7
I8
tp940
I293
s(I16
I16
tp941
I14
s(I22
I26
tp942
I74
s(I5
I50
tp943
I221
s(I12
I36
tp944
I452
s(I34
I25
tp945
I367
s(I24
I31
tp946
I121
s(I10
I30
tp947
I342
s(I13
I3
tp948
I195
s(I0
I24
tp949
I250
s(I38
I21
tp950
I174
s(I25
I0
tp951
I100
s(I28
I27
tp952
I29
s(I14
I34
tp953
I481
s(I4
I28
tp954
I182
s(I26
I33
tp955
I52
s(I7
I1
tp956
I91
s(I33
I49
tp957
I20
s(I16
I23
tp958
I334
s(I19
I2
tp959
I291
s(I22
I29
tp960
I420
s(I12
I35
tp961
I338
s(I34
I16
tp962
I397
s(I17
I40
tp963
I314
s(I37
I37
tp964
I207
s(I10
I25
tp965
I425
s(I35
I19
tp966
I165
s(I0
I31
tp967
I200
s(I38
I12
tp968
I224
s(I25
I9
tp969
I456
s(I28
I18
tp970
I467
s(I14
I37
tp971
I79
s(I1
I48
tp972
I305
s(I4
I27
tp973
I201
s(I26
I40
tp974
I3
s(I29
I13
tp975
I44
s(I16
I14
tp976
I440
s(I19
I11
tp977
I210
s(I22
I20
tp978
I203
s(I5
I36
tp979
I131
s(I9
I33
tp980
I211
s(I34
I43
tp981
I313
s(I17
I33
tp982
I298
s(I37
I46
tp983
I22
s(I23
I15
tp984
I398
s(I10
I0
tp985
I475
s(I35
I24
tp986
I290
s(I0
I22
tp987
I81
s(I38
I7
tp988
I469
s(I25
I18
tp989
I104
s(I14
I44
tp990
I125
s(I1
I9
tp991
I462
s(I39
I28
tp992
I57
s(I4
I2
tp993
I390
s(I29
I6
tp994
I25
s(I16
I5
tp995
I83
s(I19
I16
tp996
I62
s(I2
I40
tp997
I8
s(I22
I47
tp998
I158
s(I5
I45
tp999
I406
s(I9
I42
tp1000
I450
s(I34
I34
tp1001
I2
s(I17
I26
tp1002
I373
s(I23
I4
tp1003
I378
s(I10
I11
tp1004
I170
s(I13
I46
tp1005
I147
s(I35
I1
tp1006
I174
s(I25
I27
tp1007
I457
s(I11
I24
tp1008
I446
s(I1
I2
tp1009
I447
s(I39
I21
tp1010
I458
s(I4
I9
tp1011
I351
s(I29
I31
tp1012
I54
s(I19
I25
tp1013
I208
s(I2
I35
tp1014
I43
s(I22
I38
tp1015
I123
s(I5
I22
tp1016
I91
s(I27
I41
tp1017
I104
s(I30
I38
tp1018
I125
s(I17
I19
tp1019
I504
s(I23
I29
tp1020
I452
s(I10
I50
tp1021
I9
s(I32
I11
tp1022
I383
s(I13
I39
tp1023
I355
s(I35
I6
tp1024
I155
s(I18
I50
tp1025
I499
s(I38
I49
tp1026
I454
s(I25
I28
tp1027
I71
s(I11
I17
tp1028
I399
s(I1
I27
tp1029
I256
s(I39
I18
tp1030
I428
s(I26
I5
tp1031
I24
s(I29
I24
tp1032
I2
s(I15
I37
tp1033
I383
s(I19
I30
tp1034
I165
s(I5
I31
tp1035
I100
s(I27
I46
tp1036
I328
s(I30
I41
tp1037
I398
s(I17
I20
tp1038
I330
s(I20
I7
tp1039
I60
s(I23
I26
tp1040
I199
s(I32
I2
tp1041
I85
s(I13
I32
tp1042
I407
s(I35
I15
tp1043
I284
s(I18
I45
tp1044
I15
s(I38
I40
tp1045
I311
s(I11
I22
tp1046
I488
s(I14
I1
tp1047
I237
s(I36
I22
tp1048
I304
s(I1
I28
tp1049
I250
s(I39
I11
tp1050
I276
s(I26
I12
tp1051
I23
s(I29
I17
tp1052
I34
s(I15
I34
tp1053
I94
s(I19
I39
tp1054
I246
s(I22
I48
tp1055
I137
s(I5
I24
tp1056
I262
s(I27
I39
tp1057
I65
s(I30
I16
tp1058
I465
s(I17
I13
tp1059
I396
s(I20
I14
tp1060
I409
s(I23
I19
tp1061
I69
s(I6
I41
tp1062
I5
s(I10
I36
tp1063
I194
s(I32
I25
tp1064
I267
s(I18
I36
tp1065
I172
s(I38
I35
tp1066
I462
s(I8
I18
tp1067
I370
s(I11
I15
tp1068
I119
s(I14
I8
tp1069
I334
s(I36
I29
tp1070
I132
s(I1
I21
tp1071
I425
s(I39
I0
tp1072
I310
s(I26
I23
tp1073
I197
s(I15
I43
tp1074
I242
s(I19
I44
tp1075
I400
s(I2
I12
tp1076
I468
s(I24
I33
tp1077
I335
s(I5
I1
tp1078
I251
s(I30
I27
tp1079
I153
s(I17
I6
tp1080
I54
s(I20
I21
tp1081
I43
s(I23
I40
tp1082
I346
s(I6
I32
tp1083
I371
s(I10
I47
tp1084
I498
s(I32
I16
tp1085
I249
s(I18
I31
tp1086
I235
s(I8
I25
tp1087
I359
s(I11
I4
tp1088
I390
s(I14
I19
tp1089
I210
s(I36
I4
tp1090
I156
s(I26
I30
tp1091
I460
s(I12
I29
tp1092
I490
s(I15
I48
tp1093
I463
s(I2
I7
tp1094
I70
s(I24
I40
tp1095
I303
s(I5
I10
tp1096
I313
s(I30
I2
tp1097
I24
s(I20
I28
tp1098
I234
s(I23
I33
tp1099
I30
s(I6
I27
tp1100
I55
s(I28
I44
tp1101
I203
s(I32
I23
tp1102
I418
s(I31
I33
tp1103
I191
s(I35
I34
tp1104
I36
s(I18
I22
tp1105
I306
s(I8
I0
tp1106
I133
s(I33
I8
tp1107
I135
s(I14
I26
tp1108
I316
s(I36
I3
tp1109
I500
s(I26
I25
tp1110
I155
s(I12
I20
tp1111
I391
s(I2
I30
tp1112
I323
s(I24
I47
tp1113
I275
s(I27
I10
tp1114
I89
s(I30
I5
tp1115
I388
s(I0
I40
tp1116
I210
s(I20
I27
tp1117
I71
s(I3
I37
tp1118
I40
s(I6
I18
tp1119
I140
s(I28
I43
tp1120
I156
s(I32
I46
tp1121
I207
s(I31
I46
tp1122
I348
s(I35
I43
tp1123
I12
s(I18
I17
tp1124
I245
s(I21
I4
tp1125
I342
s(I8
I7
tp1126
I61
s(I7
I49
tp1127
I493
s(I11
I50
tp1128
I359
s(I33
I1
tp1129
I335
s(I14
I29
tp1130
I152
s(I36
I10
tp1131
I241
s(I39
I47
tp1132
I393
s(I12
I19
tp1133
I406
s(I15
I6
tp1134
I358
s(I37
I21
tp1135
I145
s(I2
I25
tp1136
I498
s(I27
I3
tp1137
I243
s(I30
I12
tp1138
I298
s(I0
I47
tp1139
I194
s(I20
I34
tp1140
I85
s(I3
I42
tp1141
I333
s(I6
I21
tp1142
I59
s(I28
I34
tp1143
I457
s(I32
I37
tp1144
I460
s(I31
I23
tp1145
I414
s(I18
I8
tp1146
I316
s(I21
I13
tp1147
I482
s(I8
I14
tp1148
I418
s(I7
I46
tp1149
I157
s(I11
I43
tp1150
I326
s(I33
I26
tp1151
I256
s(I36
I49
tp1152
I302
s(I39
I36
tp1153
I181
s(I9
I17
tp1154
I463
s(I12
I10
tp1155
I35
s(I15
I15
tp1156
I315
s(I37
I30
tp1157
I86
s(I2
I16
tp1158
I479
s(I27
I24
tp1159
I41
s(I0
I38
tp1160
I144
s(I20
I41
tp1161
I181
s(I3
I19
tp1162
I169
s(I25
I34
tp1163
I287
s(I6
I12
tp1164
I183
s(I31
I28
tp1165
I442
s(I18
I3
tp1166
I381
s(I21
I22
tp1167
I168
s(I4
I50
tp1168
I72
s(I7
I39
tp1169
I493
s(I11
I32
tp1170
I316
s(I33
I19
tp1171
I420
s(I9
I26
tp1172
I495
s(I12
I1
tp1173
I193
s(I15
I20
tp1174
I296
s(I37
I7
tp1175
I278
s(I24
I4
tp1176
I416
s(I27
I17
tp1177
I452
s(I13
I30
tp1178
I208
s(I20
I48
tp1179
I409
s(I3
I24
tp1180
I17
s(I25
I43
tp1181
I156
s(I6
I7
tp1182
I88
s(I28
I48
tp1183
I109
s(I31
I5
tp1184
I420
s(I21
I31
tp1185
I179
s(I7
I28
tp1186
I64
s(I29
I47
tp1187
I421
s(I33
I20
tp1188
I291
s(I16
I44
tp1189
I175
s(I36
I39
tp1190
I476
s(I9
I3
tp1191
I477
s(I34
I13
tp1192
I275
s(I15
I29
tp1193
I352
s(I37
I0
tp1194
I106
s(I24
I11
tp1195
I400
s(I27
I22
tp1196
I338
s(I13
I23
tp1197
I135
s(I3
I1
tp1198
I64
s(I25
I44
tp1199
I246
s(I28
I15
tp1200
I244
s(I31
I2
tp1201
I0
s(I1
I43
tp1202
I361
s(I21
I24
tp1203
I371
s(I4
I32
tp1204
I411
s(I8
I35
tp1205
I150
s(I7
I21
tp1206
I238
s(I29
I40
tp1207
I327
s(I33
I45
tp1208
I209
s(I16
I35
tp1209
I427
s(I36
I46
tp1210
I151
s(I22
I9
tp1211
I355
s(I9
I4
tp1212
I118
s(I34
I4
tp1213
I272
s(I15
I26
tp1214
I100
s(I37
I9
tp1215
I507
s(I24
I18
tp1216
I201
s(I13
I16
tp1217
I227
s(I0
I11
tp1218
I239
s(I38
I24
tp1219
I89
s(I3
I6
tp1220
I395
s(I28
I6
tp1221
I148
s(I31
I11
tp1222
I282
s(I1
I44
tp1223
I276
s(I21
I33
tp1224
I310
s(I4
I47
tp1225
I290
s(I8
I42
tp1226
I356
s(I7
I18
tp1227
I482
s(I29
I33
tp1228
I115
s(I33
I38
tp1229
I3
s(I16
I26
tp1230
I415
s(I22
I0
tp1231
I7
s(I9
I13
tp1232
I88
s(I12
I46
tp1233
I351
s(I34
I31
tp1234
I247
s(I37
I50
tp1235
I231
s(I24
I25
tp1236
I52
s(I10
I20
tp1237
I36
s(I13
I9
tp1238
I90
s(I0
I2
tp1239
I178
s(I38
I19
tp1240
I441
s(I3
I15
tp1241
I414
s(I28
I29
tp1242
I132
s(I1
I37
tp1243
I44
s(I21
I42
tp1244
I10
s(I4
I22
tp1245
I218
s(I26
I39
tp1246
I329
s(I7
I11
tp1247
I409
s(I16
I17
tp1248
I316
s(I22
I27
tp1249
I254
s(I5
I49
tp1250
I371
s(I12
I37
tp1251
I507
s(I34
I22
tp1252
I47
s(I10
I31
tp1253
I267
s(I13
I2
tp1254
I6
s(I0
I25
tp1255
I354
s(I38
I10
tp1256
I491
s(I25
I7
tp1257
I64
s(I28
I20
tp1258
I170
s(I14
I35
tp1259
I38
s(I4
I29
tp1260
I436
s(I26
I46
tp1261
I402
s(I7
I0
tp1262
I181
s(I33
I48
tp1263
I347
s(I16
I8
tp1264
I327
s(I19
I5
tp1265
I491
s(I22
I18
tp1266
I409
s(I30
I50
tp1267
I445
s(I34
I17
tp1268
I405
s(I17
I47
tp1269
I36
s(I37
I36
tp1270
I408
s(I10
I6
tp1271
I340
s(I35
I18
tp1272
I428
s(I0
I16
tp1273
I337
s(I38
I13
tp1274
I164
s(I25
I8
tp1275
I184
s(I28
I19
tp1276
I284
s(I14
I42
tp1277
I36
s(I4
I4
tp1278
I377
s(I26
I41
tp1279
I429
s(I29
I12
tp1280
I74
s(I16
I15
tp1281
I130
s(I19
I10
tp1282
I74
s(I2
I46
tp1283
I478
s(I22
I21
tp1284
I407
s(I5
I35
tp1285
I257
s(I9
I32
tp1286
I20
s(I34
I40
tp1287
I338
s(I17
I32
tp1288
I163
s(I37
I45
tp1289
I467
s(I23
I14
tp1290
I148
s(I10
I1
tp1291
I141
s(I35
I27
tp1292
I126
s(I0
I23
tp1293
I294
s(I38
I4
tp1294
I504
s(I25
I17
tp1295
I115
s(I14
I45
tp1296
I113
s(I1
I8
tp1297
I235
s(I39
I31
tp1298
I495
s(I4
I3
tp1299
I200
s(I26
I48
tp1300
I341
s(I29
I5
tp1301
I127
s(I16
I6
tp1302
I9
s(I19
I19
tp1303
I310
s(I2
I41
tp1304
I90
s(I22
I44
tp1305
I458
s(I5
I44
tp1306
I5
s(I9
I41
tp1307
I11
s(I34
I35
tp1308
I114
s(I17
I25
tp1309
I168
s(I23
I7
tp1310
I151
s(I10
I8
tp1311
I49
s(I13
I45
tp1312
I348
s(I35
I0
tp1313
I124
s(I25
I26
tp1314
I94
s(I11
I27
tp1315
I369
s(I1
I1
tp1316
I339
s(I39
I20
tp1317
I472
s(I4
I10
tp1318
I36
s(I29
I30
tp1319
I282
s(I19
I24
tp1320
I502
s(I2
I32
tp1321
I122
s(I22
I39
tp1322
I68
s(I5
I21
tp1323
I301
s(I27
I40
tp1324
I34
s(I30
I39
tp1325
I53
s(I17
I18
tp1326
I93
s(I23
I28
tp1327
I305
s(I32
I12
tp1328
I215
s(I13
I38
tp1329
I439
s(I35
I9
tp1330
I390
s(I11
I16
tp1331
I199
s(I1
I26
tp1332
I476
s(I39
I13
tp1333
I106
s(I26
I2
tp1334
I322
s(I29
I23
tp1335
I455
s(I15
I36
tp1336
I45
s(I19
I33
tp1337
I30
s(I5
I30
tp1338
I313
s(I27
I33
tp1339
I341
s(I30
I46
tp1340
I146
s(I17
I11
tp1341
I234
s(I20
I0
tp1342
I92
s(I23
I21
tp1343
I272
s(I32
I3
tp1344
I463
s(I35
I14
tp1345
I113
s(I18
I42
tp1346
I284
s(I38
I41
tp1347
I468
s(I11
I9
tp1348
I229
s(I14
I6
tp1349
I30
s(I36
I23
tp1350
I115
s(I1
I19
tp1351
I260
s(I39
I10
tp1352
I263
s(I26
I13
tp1353
I162
s(I29
I16
tp1354
I296
s(I15
I45
tp1355
I352
s(I19
I38
tp1356
I151
s(I2
I50
tp1357
I21
s(I22
I49
tp1358
I160
s(I5
I7
tp1359
I227
s(I27
I38
tp1360
I255
s(I30
I17
tp1361
I16
s(I17
I12
tp1362
I290
s(I20
I15
tp1363
I21
s(I3
I49
tp1364
I213
s(I23
I18
tp1365
I186
s(I6
I46
tp1366
I25
s(I10
I37
tp1367
I389
s(I32
I26
tp1368
I470
s(I31
I50
tp1369
I8
s(I18
I37
tp1370
I269
s(I38
I32
tp1371
I139
s(I8
I19
tp1372
I123
s(I11
I14
tp1373
I401
s(I14
I9
tp1374
I68
s(I36
I30
tp1375
I80
s(I1
I20
tp1376
I358
s(I39
I3
tp1377
I62
s(I26
I20
tp1378
I248
s(I15
I42
tp1379
I469
s(I19
I47
tp1380
I80
s(I2
I13
tp1381
I149
s(I24
I34
tp1382
I145
s(I5
I0
tp1383
I89
s(I30
I24
tp1384
I252
s(I17
I5
tp1385
I134
s(I20
I22
tp1386
I499
s(I23
I43
tp1387
I254
s(I6
I33
tp1388
I150
s(I10
I44
tp1389
I406
s(I32
I17
tp1390
I15
s(I18
I28
tp1391
I202
s(I8
I26
tp1392
I159
s(I11
I7
tp1393
I391
s(I14
I16
tp1394
I2
s(I36
I5
tp1395
I478
s(I26
I31
tp1396
I236
s(I12
I30
tp1397
I152
s(I2
I4
tp1398
I326
s(I24
I41
tp1399
I397
s(I5
I9
tp1400
I191
s(I30
I3
tp1401
I200
s(I20
I29
tp1402
I352
s(I23
I32
tp1403
I11
s(I6
I24
tp1404
I416
s(I28
I45
tp1405
I143
s(I32
I40
tp1406
I175
s(I31
I32
tp1407
I372
s(I35
I37
tp1408
I358
s(I18
I23
tp1409
I468
s(I8
I1
tp1410
I287
s(I33
I15
tp1411
I201
s(I14
I27
tp1412
I496
s(I36
I12
tp1413
I446
s(I39
I49
tp1414
I354
s(I12
I21
tp1415
I455
s(I2
I31
tp1416
I245
s(I24
I48
tp1417
I417
s(I27
I13
tp1418
I149
s(I30
I10
tp1419
I257
s(I0
I41
tp1420
I356
s(I20
I36
tp1421
I2
s(I3
I36
tp1422
I188
s(I6
I19
tp1423
I334
s(I28
I36
tp1424
I199
s(I32
I47
tp1425
I472
s(I31
I41
tp1426
I23
s(I35
I42
tp1427
I212
s(I18
I14
tp1428
I78
s(I21
I3
tp1429
I217
s(I8
I8
tp1430
I368
s(I7
I48
tp1431
I119
s(I33
I0
tp1432
I70
s(I36
I11
tp1433
I298
s(I39
I46
tp1434
I48
s(I12
I12
tp1435
I439
s(I15
I1
tp1436
I44
s(I37
I20
tp1437
I364
s(I2
I22
tp1438
I84
s(I27
I2
tp1439
I464
s(I30
I13
tp1440
I9
s(I0
I32
tp1441
I62
s(I20
I35
tp1442
I368
s(I3
I45
tp1443
I466
s(I6
I10
tp1444
I388
s(I28
I35
tp1445
I28
s(I32
I38
tp1446
I15
s(I31
I22
tp1447
I350
s(I18
I9
tp1448
I106
s(I21
I12
tp1449
I114
s(I8
I15
tp1450
I26
s(I7
I41
tp1451
I23
s(I11
I42
tp1452
I312
s(I33
I25
tp1453
I93
s(I36
I50
tp1454
I386
s(I39
I39
tp1455
I341
s(I9
I16
tp1456
I198
s(I12
I11
tp1457
I273
s(I15
I14
tp1458
I10
s(I37
I29
tp1459
I44
s(I2
I17
tp1460
I498
s(I27
I27
tp1461
I434
s(I0
I39
tp1462
I451
s(I20
I42
tp1463
I130
s(I3
I18
tp1464
I183
s(I25
I33
tp1465
I195
s(I6
I13
tp1466
I68
s(I31
I31
tp1467
I35
s(I18
I0
tp1468
I144
s(I21
I21
tp1469
I275
s(I7
I38
tp1470
I490
s(I11
I35
tp1471
I326
s(I33
I18
tp1472
I243
s(I9
I25
tp1473
I265
s(I12
I2
tp1474
I188
s(I15
I23
tp1475
I2
s(I37
I6
tp1476
I466
s(I24
I5
tp1477
I419
s(I27
I16
tp1478
I396
s(I13
I29
tp1479
I330
s(I20
I49
tp1480
I479
s(I3
I27
tp1481
I75
s(I25
I42
tp1482
I474
s(I6
I4
tp1483
I413
s(I28
I49
tp1484
I95
s(I31
I4
tp1485
I248
s(I21
I30
tp1486
I35
s(I7
I31
tp1487
I301
s(I29
I46
tp1488
I412
s(I33
I43
tp1489
I61
s(I16
I45
tp1490
I408
s(I36
I32
tp1491
I35
s(I9
I2
tp1492
I458
s(I34
I10
tp1493
I428
s(I15
I28
tp1494
I274
s(I37
I15
tp1495
I506
s(I24
I12
tp1496
I447
s(I13
I22
tp1497
I71
s(I3
I0
tp1498
I271
s(I28
I8
tp1499
I441
s(I31
I13
tp1500
I247
s(I1
I42
tp1501
I274
s(I21
I39
tp1502
I168
s(I4
I33
tp1503
I302
s(I8
I36
tp1504
I315
s(I7
I20
tp1505
I196
s(I29
I39
tp1506
I113
s(I33
I44
tp1507
I12
s(I16
I36
tp1508
I81
s(I36
I47
tp1509
I149
s(I22
I14
tp1510
I445
s(I9
I11
tp1511
I155
s(I12
I48
tp1512
I441
s(I34
I5
tp1513
I183
s(I37
I8
tp1514
I248
s(I24
I19
tp1515
I375
s(I13
I15
tp1516
I249
s(I0
I12
tp1517
I157
s(I38
I25
tp1518
I307
s(I3
I9
tp1519
I319
s(I28
I7
tp1520
I63
s(I31
I10
tp1521
I32
s(I1
I35
tp1522
I233
s(I21
I32
tp1523
I55
s(I4
I40
tp1524
I474
s(I8
I43
tp1525
I23
s(I7
I13
tp1526
I322
s(I29
I32
tp1527
I484
s(I33
I37
tp1528
I319
s(I16
I27
tp1529
I109
s(I22
I1
tp1530
I350
s(I9
I12
tp1531
I377
s(I12
I47
tp1532
I370
s(I34
I28
tp1533
I339
s(I37
I49
tp1534
I77
s(I24
I26
tp1535
I192
s(I10
I21
tp1536
I147
s(I13
I8
tp1537
I296
s(I0
I3
tp1538
I280
s(I38
I16
tp1539
I443
s(I3
I14
tp1540
I102
s(I28
I30
tp1541
I435
s(I1
I36
tp1542
I444
s(I21
I41
tp1543
I98
s(I4
I23
tp1544
I233
s(I26
I36
tp1545
I414
s(I7
I10
tp1546
I395
s(I16
I18
tp1547
I20
s(I22
I24
tp1548
I139
s(I5
I48
tp1549
I260
s(I12
I38
tp1550
I40
s(I34
I23
tp1551
I177
s(I10
I28
tp1552
I417
s(I13
I1
tp1553
I226
s(I0
I26
tp1554
I504
s(I38
I11
tp1555
I12
s(I25
I6
tp1556
I236
s(I28
I21
tp1557
I347
s(I14
I32
tp1558
I190
s(I21
I50
tp1559
I244
s(I4
I30
tp1560
I51
s(I26
I47
tp1561
I49
s(I7
I3
tp1562
I197
s(I29
I50
tp1563
I173
s(I16
I9
tp1564
I423
s(I19
I4
tp1565
I165
s(I22
I19
tp1566
I440
s(I34
I46
tp1567
I433
s(I17
I46
tp1568
I397
s(I37
I35
tp1569
I85
s(I10
I7
tp1570
I243
s(I35
I21
tp1571
I178
s(I0
I17
tp1572
I192
s(I38
I2
tp1573
I218
s(I25
I15
tp1574
I368
s(I14
I43
tp1575
I416
s(I4
I5
tp1576
I427
s(I29
I11
tp1577
I62
s(I16
I0
tp1578
I70
s(I19
I13
tp1579
I149
s(I2
I47
tp1580
I355
s(I22
I42
tp1581
I287
s(I5
I34
tp1582
I279
s(I9
I39
tp1583
I416
s(I34
I41
tp1584
I35
s(I17
I39
tp1585
I454
s(I37
I44
tp1586
I16
s(I23
I9
tp1587
I150
s(I10
I14
tp1588
I439
s(I35
I26
tp1589
I146
s(I38
I5
tp1590
I140
s(I25
I16
tp1591
I351
s(I14
I50
tp1592
I210
s(I1
I15
tp1593
I489
s(I39
I30
tp1594
I291
s(I4
I12
tp1595
I434
s(I26
I49
tp1596
I41
s(I29
I4
tp1597
I293
s(I16
I7
tp1598
I130
s(I19
I18
tp1599
I454
s(I2
I38
tp1600
I449
s(I22
I45
tp1601
I81
s(I5
I43
tp1602
I421
s(I9
I40
tp1603
I62
s(I34
I32
tp1604
I418
s(I17
I24
tp1605
I112
s(I23
I6
tp1606
I55
s(I10
I9
tp1607
I476
s(I13
I44
tp1608
I217
s(I35
I3
tp1609
I480
s(I25
I25
tp1610
I42
s(I11
I26
tp1611
I472
s(I1
I0
tp1612
I147
s(I39
I23
tp1613
I16
s(I4
I11
tp1614
I138
s(I29
I29
tp1615
I116
s(I19
I27
tp1616
I472
s(I2
I33
tp1617
I51
s(I22
I36
tp1618
I38
s(I5
I20
tp1619
I476
s(I27
I43
tp1620
I323
s(I30
I36
tp1621
I319
s(I17
I17
tp1622
I283
s(I23
I31
tp1623
I420
s(I10
I48
tp1624
I384
s(I32
I13
tp1625
I51
s(I13
I37
tp1626
I256
s(I35
I8
tp1627
I4
s(I18
I48
tp1628
I506
s(I11
I19
tp1629
I53
s(I1
I25
tp1630
I169
s(I39
I12
tp1631
I18
s(I26
I3
tp1632
I403
s(I29
I22
tp1633
I373
s(I15
I39
tp1634
I201
s(I19
I32
tp1635
I43
s(I5
I29
tp1636
I482
s(I27
I32
tp1637
I320
s(I30
I47
tp1638
I307
s(I34
I50
tp1639
I467
s(I17
I10
tp1640
I289
s(I20
I1
tp1641
I336
s(I23
I20
tp1642
I266
s(I32
I4
tp1643
I368
s(I35
I49
tp1644
I453
s(I18
I43
tp1645
I433
s(I38
I46
tp1646
I14
s(I11
I8
tp1647
I504
s(I14
I7
tp1648
I371
s(I36
I16
tp1649
I226
s(I1
I18
tp1650
I419
s(I39
I5
tp1651
I109
s(I26
I10
tp1652
I504
s(I15
I44
tp1653
I359
s(I19
I41
tp1654
I9
s(I5
I6
tp1655
I397
s(I30
I22
tp1656
I397
s(I17
I3
tp1657
I181
s(I20
I8
tp1658
I459
s(I3
I48
tp1659
I322
s(I23
I45
tp1660
I431
s(I6
I47
tp1661
I443
s(I10
I34
tp1662
I397
s(I32
I27
tp1663
I146
s(I18
I34
tp1664
I492
s(I38
I33
tp1665
I124
s(I8
I20
tp1666
I399
s(I11
I1
tp1667
I11
s(I14
I14
tp1668
I508
s(I36
I31
tp1669
I406
s(I39
I2
tp1670
I27
s(I26
I21
tp1671
I414
s(I19
I46
tp1672
I159
s(I2
I10
tp1673
I444
s(I24
I35
tp1674
I183
s(I5
I15
tp1675
I129
s(I30
I25
tp1676
I299
s(I17
I4
tp1677
I238
s(I20
I23
tp1678
I399
s(I23
I42
tp1679
I244
s(I6
I38
tp1680
I367
s(I10
I45
tp1681
I58
s(I32
I18
tp1682
I194
s(I18
I29
tp1683
I158
s(I8
I27
tp1684
I27
s(I11
I6
tp1685
I24
s(I14
I17
tp1686
I0
s(I36
I6
tp1687
I292
s(I26
I28
tp1688
I256
s(I12
I31
tp1689
I233
s(I15
I50
tp1690
I66
s(I2
I5
tp1691
I324
s(I24
I42
tp1692
I117
s(I5
I8
tp1693
I177
s(I30
I0
tp1694
I415
s(I20
I30
tp1695
I286
s(I23
I35
tp1696
I97
s(I6
I25
tp1697
I367
s(I28
I46
tp1698
I290
s(I32
I41
tp1699
I180
s(I31
I35
tp1700
I441
s(I35
I36
tp1701
I452
s(I18
I20
tp1702
I422
s(I8
I2
tp1703
I404
s(I33
I14
tp1704
I415
s(I14
I24
tp1705
I214
s(I36
I13
tp1706
I81
s(I39
I48
tp1707
I487
s(I12
I22
tp1708
I25
s(I2
I28
tp1709
I105
s(I24
I49
tp1710
I275
s(I27
I12
tp1711
I142
s(I30
I11
tp1712
I383
s(I0
I42
tp1713
I106
s(I20
I37
tp1714
I229
s(I3
I39
tp1715
I346
s(I6
I16
tp1716
I369
s(I28
I37
tp1717
I15
s(I32
I32
tp1718
I72
s(I31
I40
tp1719
I202
s(I35
I45
tp1720
I170
s(I18
I15
tp1721
I142
s(I21
I2
tp1722
I287
s(I8
I9
tp1723
I264
s(I33
I7
tp1724
I191
s(I39
I41
tp1725
I361
s(I12
I13
tp1726
I382
s(I15
I0
tp1727
I251
s(I37
I19
tp1728
I4
s(I2
I23
tp1729
I474
s(I27
I5
tp1730
I54
s(I0
I33
tp1731
I45
s(I20
I44
tp1732
I495
s(I3
I44
tp1733
I402
s(I23
I49
tp1734
I418
s(I6
I11
tp1735
I314
s(I32
I39
tp1736
I233
s(I31
I17
tp1737
I502
s(I18
I6
tp1738
I338
s(I21
I11
tp1739
I355
s(I8
I48
tp1740
I83
s(I7
I40
tp1741
I452
s(I11
I45
tp1742
I302
s(I33
I24
tp1743
I196
s(I16
I48
tp1744
I196
s(I39
I38
tp1745
I309
s(I9
I23
tp1746
I185
s(I12
I4
tp1747
I139
s(I15
I9
tp1748
I120
s(I37
I28
tp1749
I332
s(I27
I26
tp1750
I269
s(I20
I43
tp1751
I506
s(I3
I21
tp1752
I431
s(I25
I32
tp1753
I394
s(I6
I2
tp1754
I129
s(I31
I30
tp1755
I466
s(I18
I1
tp1756
I366
s(I21
I20
tp1757
I72
s(I7
I33
tp1758
I479
s(I11
I34
tp1759
I35
s(I33
I17
tp1760
I99
s(I9
I24
tp1761
I145
s(I12
I3
tp1762
I257
s(I15
I22
tp1763
I284
s(I37
I5
tp1764
I317
s(I24
I6
tp1765
I382
s(I27
I19
tp1766
I490
s(I13
I28
tp1767
I188
s(I20
I50
tp1768
I418
s(I3
I26
tp1769
I387
s(I25
I41
tp1770
I220
s(I6
I5
tp1771
I303
s(I28
I50
tp1772
I148
s(I31
I7
tp1773
I163
s(I21
I29
tp1774
I397
s(I7
I30
tp1775
I29
s(I29
I45
tp1776
I231
s(I33
I42
tp1777
I10
s(I16
I46
tp1778
I419
s(I36
I33
tp1779
I220
s(I9
I1
tp1780
I411
s(I34
I11
tp1781
I135
s(I15
I31
tp1782
I54
s(I37
I14
tp1783
I477
s(I24
I13
tp1784
I8
s(I13
I21
tp1785
I236
s(I3
I3
tp1786
I175
s(I25
I50
tp1787
I495
s(I28
I9
tp1788
I44
s(I31
I12
tp1789
I423
s(I1
I41
tp1790
I476
s(I21
I38
tp1791
I6
s(I4
I34
tp1792
I48
s(I8
I37
tp1793
I468
s(I7
I23
tp1794
I218
s(I29
I38
tp1795
I433
s(I33
I35
tp1796
I372
s(I16
I37
tp1797
I25
s(I36
I40
tp1798
I461
s(I22
I15
tp1799
I230
s(I9
I10
tp1800
I97
s(I12
I49
tp1801
I474
s(I34
I2
tp1802
I239
s(I24
I20
tp1803
I256
s(I13
I14
tp1804
I236
s(I0
I13
tp1805
I434
s(I38
I30
tp1806
I180
s(I3
I8
tp1807
I140
s(I28
I0
tp1808
I13
s(I1
I34
tp1809
I8
s(I21
I47
tp1810
I72
s(I4
I41
tp1811
I492
s(I8
I44
tp1812
I265
s(I7
I12
tp1813
I218
s(I33
I36
tp1814
I66
s(I16
I28
tp1815
I63
s(I22
I6
tp1816
I367
s(I12
I40
tp1817
I187
s(I34
I29
tp1818
I136
s(I37
I48
tp1819
I402
s(I24
I27
tp1820
I16
s(I10
I18
tp1821
I265
s(I13
I7
tp1822
I22
s(I0
I4
tp1823
I104
s(I38
I17
tp1824
I279
s(I28
I31
tp1825
I110
s(I21
I40
tp1826
I389
s(I4
I16
tp1827
I89
s(I26
I37
tp1828
I203
s(I7
I5
tp1829
I144
s(I16
I19
tp1830
I157
s(I22
I25
tp1831
I297
s(I12
I39
tp1832
I504
s(I34
I20
tp1833
I418
s(I10
I29
tp1834
I344
s(I13
I0
tp1835
I305
s(I0
I27
tp1836
I275
s(I38
I8
tp1837
I376
s(I25
I5
tp1838
I143
s(I28
I22
tp1839
I484
s(I14
I33
tp1840
I120
s(I21
I49
tp1841
I173
s(I4
I31
tp1842
I327
s(I26
I44
tp1843
I439
s(I7
I2
tp1844
I495
s(I29
I49
tp1845
I437
s(I16
I10
tp1846
I215
s(I19
I7
tp1847
I219
s(I22
I16
tp1848
I503
s(I30
I48
tp1849
I17
s(I34
I47
tp1850
I444
s(I17
I45
tp1851
I228
s(I37
I34
tp1852
I218
s(I10
I4
tp1853
I107
s(I35
I20
tp1854
I290
s(I0
I18
tp1855
I18
s(I38
I3
tp1856
I456
s(I25
I14
tp1857
I271
s(I14
I40
tp1858
I54
s(I4
I6
tp1859
I424
s(I29
I10
tp1860
I438
s(I16
I1
tp1861
I198
s(I19
I12
tp1862
I22
s(I2
I44
tp1863
I11
s(I22
I43
tp1864
I332
s(I5
I33
tp1865
I267
s(I9
I38
tp1866
I43
s(I34
I38
tp1867
I149
s(I17
I38
tp1868
I30
s(I37
I43
tp1869
I321
s(I23
I8
tp1870
I238
s(I10
I15
tp1871
I462
s(I13
I50
tp1872
I147
s(I35
I29
tp1873
I285
s(I25
I23
tp1874
I506
s(I1
I14
tp1875
I308
s(I39
I25
tp1876
I374
s(I4
I13
tp1877
I154
s(I29
I3
tp1878
I194
s(I19
I21
tp1879
I114
s(I2
I39
tp1880
I371
s(I22
I34
tp1881
I143
s(I5
I42
tp1882
I439
s(I9
I47
tp1883
I360
s(I30
I34
tp1884
I96
s(I34
I33
tp1885
I506
s(I17
I31
tp1886
I221
s(I23
I1
tp1887
I427
s(I13
I43
tp1888
I245
s(I35
I2
tp1889
I499
s(I25
I24
tp1890
I113
s(I11
I29
tp1891
I401
s(I1
I7
tp1892
I41
s(I39
I22
tp1893
I485
s(I29
I28
tp1894
I445
s(I19
I26
tp1895
I262
s(I22
I37
tp1896
I488
s(I5
I19
tp1897
I331
s(I27
I42
tp1898
I156
s(I30
I37
tp1899
I8
s(I17
I16
tp1900
I381
s(I23
I30
tp1901
I210
s(I6
I50
tp1902
I215
s(I10
I49
tp1903
I360
s(I32
I14
tp1904
I125
s(I13
I36
tp1905
I256
s(I35
I11
tp1906
I355
s(I18
I49
tp1907
I460
s(I11
I18
tp1908
I346
s(I1
I24
tp1909
I163
s(I39
I15
tp1910
I231
s(I26
I0
tp1911
I69
s(I29
I21
tp1912
I272
s(I15
I38
tp1913
I97
s(I19
I35
tp1914
I243
s(I5
I28
tp1915
I181
s(I27
I35
tp1916
I406
s(I30
I44
tp1917
I450
s(I17
I9
tp1918
I291
s(I20
I2
tp1919
I207
s(I23
I23
tp1920
I365
s(I32
I5
tp1921
I302
s(I35
I48
tp1922
I486
s(I18
I40
tp1923
I508
s(I38
I47
tp1924
I410
s(I11
I11
tp1925
I61
s(I14
I4
tp1926
I388
s(I36
I17
tp1927
I257
s(I1
I17
tp1928
I302
s(I39
I4
tp1929
I508
s(I26
I11
tp1930
I218
s(I15
I47
tp1931
I169
s(I19
I40
tp1932
I23
s(I2
I48
tp1933
I395
s(I5
I5
tp1934
I144
s(I30
I23
tp1935
I349
s(I17
I2
tp1936
I452
s(I20
I9
tp1937
I266
s(I23
I44
tp1938
I84
s(I6
I44
tp1939
I294
s(I10
I35
tp1940
I21
s(I32
I28
tp1941
I233
s(I18
I35
tp1942
I496
s(I38
I38
tp1943
I247
s(I8
I21
tp1944
I57
s(I11
I0
tp1945
I247
s(I14
I15
tp1946
I49
s(I36
I24
tp1947
I288
s(I26
I18
tp1948
I349
s(I19
I49
tp1949
I130
s(I2
I11
tp1950
I2
s(I24
I36
tp1951
I297
s(I5
I14
tp1952
I3
s(I27
I49
tp1953
I72
s(I30
I30
tp1954
I497
s(I20
I16
tp1955
I406
s(I23
I37
tp1956
I281
s(I6
I39
tp1957
I425
s(I10
I42
tp1958
I254
s(I32
I19
tp1959
I433
s(I31
I37
tp1960
I16
s(I18
I26
tp1961
I504
s(I8
I28
tp1962
I278
s(I14
I22
tp1963
I308
s(I36
I7
tp1964
I418
s(I26
I29
tp1965
I204
s(I12
I24
tp1966
I12
s(I2
I2
tp1967
I263
s(I24
I43
tp1968
I134
s(I30
I1
tp1969
I327
s(I20
I31
tp1970
I400
s(I3
I33
tp1971
I196
s(I23
I34
tp1972
I152
s(I6
I30
tp1973
I462
s(I28
I47
tp1974
I463
s(I32
I42
tp1975
I208
s(I31
I34
tp1976
I461
s(I35
I39
tp1977
I95
s(I18
I21
tp1978
I74
s(I8
I3
tp1979
I91
s(I33
I13
tp1980
I7
s(I14
I25
tp1981
I77
s(I36
I14
tp1982
I338
s(I12
I23
tp1983
I18
s(I2
I29
tp1984
I84
s(I24
I50
tp1985
I358
s(I27
I15
tp1986
I262
s(I30
I8
tp1987
I127
s(I0
I43
tp1988
I425
s(I20
I38
tp1989
I269
s(I3
I38
tp1990
I372
s(I6
I17
tp1991
I261
s(I28
I38
tp1992
I224
s(I32
I33
tp1993
I367
s(I31
I43
tp1994
I104
s(I35
I44
tp1995
I486
s(I18
I12
tp1996
I242
s(I21
I1
tp1997
I65
s(I8
I10
tp1998
I138
s(I7
I50
tp1999
I37
s(I33
I6
tp2000
I275
s(I39
I40
tp2001
I150
s(I12
I14
tp2002
I319
s(I15
I3
tp2003
I293
s(I37
I18
tp2004
I284
s(I2
I20
tp2005
I22
s(I27
I4
tp2006
I412
s(I0
I34
tp2007
I437
s(I20
I45
tp2008
I280
s(I3
I47
tp2009
I189
s(I23
I48
tp2010
I478
s(I6
I8
tp2011
I101
s(I31
I16
tp2012
I73
s(I18
I7
tp2013
I333
s(I21
I10
tp2014
I474
s(I8
I49
tp2015
I388
s(I7
I43
tp2016
I235
s(I11
I44
tp2017
I338
s(I33
I31
tp2018
I463
s(I16
I49
tp2019
I75
s(I39
I33
tp2020
I132
s(I9
I22
tp2021
I320
s(I12
I5
tp2022
I481
s(I15
I8
tp2023
I350
s(I37
I27
tp2024
I228
s(I24
I0
tp2025
I216
s(I27
I29
tp2026
I385
s(I3
I20
tp2027
I81
s(I25
I39
tp2028
I55
s(I6
I3
tp2029
I479
s(I31
I25
tp2030
I6
s(I21
I19
tp2031
I14
s(I7
I32
tp2032
I81
s(I11
I37
tp2033
I375
s(I33
I16
tp2034
I400
s(I16
I40
tp2035
I357
s(I9
I31
tp2036
I228
s(I15
I17
tp2037
I425
s(I37
I4
tp2038
I216
s(I24
I7
tp2039
I496
s(I27
I18
tp2040
I312
s(I13
I27
tp2041
I118
s(I0
I48
tp2042
I447
s(I3
I29
tp2043
I432
s(I25
I40
tp2044
I255
ssS'_moonfield__ymax'
p2045
I51
sb.